; Function Attrs: mustprogress nounwind uwtable
define dso_local noundef nonnull align 1 ptr @_ZN4llvm20getFltSemanticForLLTENS_3LLTE(i64 %0) local_unnamed_addr #0 {
  %2 = alloca %"class.llvm::TypeSize", align 8
  %3 = and i64 %0, -7
  %spec.select.i.i.i = icmp ne i64 %3, 0
  %4 = and i64 %0, 2
  %.not.i.not.i = icmp eq i64 %4, 0
  %5 = and i64 %0, 6
  %6 = icmp eq i64 %5, 2
  %or.cond.i = and i1 %spec.select.i.i.i, %6
  %7 = and i64 %0, 1
  %8 = icmp ne i64 %7, 0
  %or.cond14.i = or i1 %8, %or.cond.i
  br i1 %or.cond14.i, label %9, label %_ZNK4llvm3LLT19getScalarSizeInBitsEv.exit11.i

9:                                                ; preds = %1
  %.not.i1.i = icmp eq i64 %7, 0
  br i1 %.not.i1.i, label %12, label %10

10:                                               ; preds = %9
  %11 = lshr i64 %0, 3
  br label %_ZNK4llvm3LLT13getSizeInBitsEv.exit

12:                                               ; preds = %9
  %13 = and i64 %0, 4
  %.not1.i2.i = icmp eq i64 %13, 0
  br i1 %.not1.i2.i, label %17, label %14

14:                                               ; preds = %12
  %15 = lshr i64 %0, 19
  %16 = and i64 %15, 65535
  %spec.select.i.i = select i1 %.not.i.not.i, i64 %15, i64 %16
  br label %_ZNK4llvm3LLT13getSizeInBitsEv.exit

17:                                               ; preds = %12
  %18 = lshr i64 %0, 3
  %19 = and i64 %18, 65535
  br label %_ZNK4llvm3LLT13getSizeInBitsEv.exit

_ZNK4llvm3LLT19getScalarSizeInBitsEv.exit11.i:    ; preds = %1
  %20 = lshr i64 %0, 3
  %.sroa.0.0.insert.ext.i.i.i = and i64 %20, 65535
  %21 = select i1 %.not.i.not.i, i64 2251799813685248, i64 576460752303423488
  %22 = and i64 %21, %0
  %.not1.i4.i = icmp ne i64 %22, 0
  %23 = and i64 %0, 4
  %.not1.i8.i = icmp eq i64 %23, 0
  %24 = lshr i64 %0, 19
  %25 = and i64 %24, 65535
  %spec.select.i10.i = select i1 %.not.i.not.i, i64 %24, i64 %25
  %.0.in.i6.i = select i1 %.not1.i8.i, i64 %.sroa.0.0.insert.ext.i.i.i, i64 %spec.select.i10.i
  %26 = mul nuw nsw i64 %.0.in.i6.i, %.sroa.0.0.insert.ext.i.i.i
  %27 = zext i1 %.not1.i4.i to i8
  br label %_ZNK4llvm3LLT13getSizeInBitsEv.exit

_ZNK4llvm3LLT13getSizeInBitsEv.exit:              ; preds = %10, %14, %17, %_ZNK4llvm3LLT19getScalarSizeInBitsEv.exit11.i
  %.sroa.012.0.in.i = phi i64 [ %26, %_ZNK4llvm3LLT19getScalarSizeInBitsEv.exit11.i ], [ %11, %10 ], [ %19, %17 ], [ %spec.select.i.i, %14 ]
  %.sroa.3.0.i = phi i8 [ %27, %_ZNK4llvm3LLT19getScalarSizeInBitsEv.exit11.i ], [ 0, %10 ], [ 0, %17 ], [ 0, %14 ]
  %.sroa.012.0.i = and i64 %.sroa.012.0.in.i, 4294967295
  store i64 %.sroa.012.0.i, ptr %2, align 8
  %.sroa.2.0..sroa_idx = getelementptr inbounds i8, ptr %2, i64 8
  store i8 %.sroa.3.0.i, ptr %.sroa.2.0..sroa_idx, align 8
  %28 = call noundef i64 @_ZNK4llvm8TypeSizecvmEv(ptr noundef nonnull align 8 dereferenceable(9) %2) #4
  %29 = add i64 %28, -16
  %30 = call i64 @llvm.fshl.i64(i64 %29, i64 %29, i64 60)
  switch i64 %30, label %39 [
    i64 0, label %31
    i64 1, label %33
    i64 3, label %35
    i64 7, label %37
  ]

31:                                               ; preds = %_ZNK4llvm3LLT13getSizeInBitsEv.exit
  %32 = tail call noundef nonnull align 1 ptr @_ZN4llvm11APFloatBase8IEEEhalfEv() #5
  br label %40

33:                                               ; preds = %_ZNK4llvm3LLT13getSizeInBitsEv.exit
  %34 = tail call noundef nonnull align 1 ptr @_ZN4llvm11APFloatBase10IEEEsingleEv() #5
  br label %40

35:                                               ; preds = %_ZNK4llvm3LLT13getSizeInBitsEv.exit
  %36 = tail call noundef nonnull align 1 ptr @_ZN4llvm11APFloatBase10IEEEdoubleEv() #5
  br label %40

37:                                               ; preds = %_ZNK4llvm3LLT13getSizeInBitsEv.exit
  %38 = tail call noundef nonnull align 1 ptr @_ZN4llvm11APFloatBase8IEEEquadEv() #5
  br label %40

39:                                               ; preds = %_ZNK4llvm3LLT13getSizeInBitsEv.exit
  unreachable

40:                                               ; preds = %37, %35, %33, %31
  %.0 = phi ptr [ %38, %37 ], [ %36, %35 ], [ %34, %33 ], [ %32, %31 ]
  ret ptr %.0
}